target datalayout = "e-m:e-p270:32:32-p271:32:32-p272:64:64-i64:64-i128:128-f80:128-n8:16:32:64-S128"
target triple = "x86_64-pc-linux-gnu"

%struct.pmix_tma = type { ptr, ptr, ptr, ptr, ptr, ptr, ptr, ptr }

; Function Attrs: inlinehint nounwind uwtable
define internal ptr @pmix_tma_realloc(ptr noundef %0, ptr noundef %1, i64 noundef %2) #1 {
  %4 = alloca ptr, align 8
  %5 = alloca ptr, align 8
  %6 = alloca ptr, align 8
  %7 = alloca i64, align 8
  store ptr %0, ptr %5, align 8, !tbaa !8
  store ptr %1, ptr %6, align 8, !tbaa !51
  store i64 %2, ptr %7, align 8, !tbaa !30
  %8 = load ptr, ptr %5, align 8, !tbaa !8
  %9 = icmp ne ptr null, %8
  br i1 %9, label %10, label %18

10:                                               ; preds = %3
  %11 = load ptr, ptr %5, align 8, !tbaa !8
  %12 = getelementptr inbounds nuw %struct.pmix_tma, ptr %11, i32 0, i32 2
  %13 = load ptr, ptr %12, align 8, !tbaa !227
  %14 = load ptr, ptr %5, align 8, !tbaa !8
  %15 = load ptr, ptr %6, align 8, !tbaa !51
  %16 = load i64, ptr %7, align 8, !tbaa !30
  %17 = call ptr %13(ptr noundef %14, ptr noundef %15, i64 noundef %16)
  store ptr %17, ptr %4, align 8
  br label %22

18:                                               ; preds = %3
  %19 = load ptr, ptr %6, align 8, !tbaa !51
  %20 = load i64, ptr %7, align 8, !tbaa !30
  %21 = call ptr @realloc(ptr noundef %19, i64 noundef %20) #18
  store ptr %21, ptr %4, align 8
  br label %22

22:                                               ; preds = %18, %10
  %23 = load ptr, ptr %4, align 8
  ret ptr %23
}

; Function Attrs: inlinehint nounwind uwtable
define internal i32 @pmix_bfrops_base_tma_argv_count(ptr noundef %0, ptr noundef %1) #1 {
  %3 = alloca i32, align 4
  %4 = alloca ptr, align 8
  %5 = alloca ptr, align 8
  %6 = alloca ptr, align 8
  %7 = alloca i32, align 4
  %8 = alloca i32, align 4
  store ptr %0, ptr %4, align 8, !tbaa !16
  store ptr %1, ptr %5, align 8, !tbaa !8
  call void @llvm.lifetime.start.p0(i64 8, ptr %6) #15
  call void @llvm.lifetime.start.p0(i64 4, ptr %7) #15
  %9 = load ptr, ptr %4, align 8, !tbaa !16
  %10 = icmp eq ptr null, %9
  br i1 %10, label %11, label %12

11:                                               ; preds = %2
  store i32 0, ptr %3, align 4
  store i32 1, ptr %8, align 4
  br label %26

12:                                               ; preds = %2
  store i32 0, ptr %7, align 4, !tbaa !12
  %13 = load ptr, ptr %4, align 8, !tbaa !16
  store ptr %13, ptr %6, align 8, !tbaa !16
  br label %14

14:                                               ; preds = %19, %12
  %15 = load ptr, ptr %6, align 8, !tbaa !16
  %16 = load ptr, ptr %15, align 8, !tbaa !3
  %17 = icmp ne ptr %16, null
  br i1 %17, label %18, label %24

18:                                               ; preds = %14
  br label %19

19:                                               ; preds = %18
  %20 = load i32, ptr %7, align 4, !tbaa !12
  %21 = add nsw i32 %20, 1
  store i32 %21, ptr %7, align 4, !tbaa !12
  %22 = load ptr, ptr %6, align 8, !tbaa !16
  %23 = getelementptr inbounds nuw ptr, ptr %22, i32 1
  store ptr %23, ptr %6, align 8, !tbaa !16
  br label %14, !llvm.loop !18

24:                                               ; preds = %14
  %25 = load i32, ptr %7, align 4, !tbaa !12
  store i32 %25, ptr %3, align 4
  store i32 1, ptr %8, align 4
  br label %26

26:                                               ; preds = %24, %11
  call void @llvm.lifetime.end.p0(i64 4, ptr %7) #15
  call void @llvm.lifetime.end.p0(i64 8, ptr %6) #15
  %27 = load i32, ptr %3, align 4
  ret i32 %27
}

; Function Attrs: inlinehint nounwind uwtable
define internal ptr @pmix_tma_strdup(ptr noundef %0, ptr noundef %1) #1 {
  %3 = alloca ptr, align 8
  %4 = alloca ptr, align 8
  %5 = alloca ptr, align 8
  store ptr %0, ptr %4, align 8, !tbaa !8
  store ptr %1, ptr %5, align 8, !tbaa !3
  %6 = load ptr, ptr %4, align 8, !tbaa !8
  %7 = icmp ne ptr null, %6
  br i1 %7, label %8, label %15

8:                                                ; preds = %2
  %9 = load ptr, ptr %4, align 8, !tbaa !8
  %10 = getelementptr inbounds nuw %struct.pmix_tma, ptr %9, i32 0, i32 3
  %11 = load ptr, ptr %10, align 8, !tbaa !228
  %12 = load ptr, ptr %4, align 8, !tbaa !8
  %13 = load ptr, ptr %5, align 8, !tbaa !3
  %14 = call ptr %11(ptr noundef %12, ptr noundef %13)
  store ptr %14, ptr %3, align 8
  br label %18

15:                                               ; preds = %2
  %16 = load ptr, ptr %5, align 8, !tbaa !3
  %17 = call noalias ptr @strdup(ptr noundef %16) #15
  store ptr %17, ptr %3, align 8
  br label %18

18:                                               ; preds = %15, %8
  %19 = load ptr, ptr %3, align 8
  ret ptr %19
}

; Function Attrs: inlinehint nounwind uwtable
define internal ptr @pmix_tma_malloc(ptr noundef %0, i64 noundef %1) #1 {
  %3 = alloca ptr, align 8
  %4 = alloca ptr, align 8
  %5 = alloca i64, align 8
  store ptr %0, ptr %4, align 8, !tbaa !8
  store i64 %1, ptr %5, align 8, !tbaa !30
  %6 = load ptr, ptr %4, align 8, !tbaa !8
  %7 = icmp ne ptr null, %6
  br i1 %7, label %8, label %15

8:                                                ; preds = %2
  %9 = load ptr, ptr %4, align 8, !tbaa !8
  %10 = getelementptr inbounds nuw %struct.pmix_tma, ptr %9, i32 0, i32 0
  %11 = load ptr, ptr %10, align 8, !tbaa !226
  %12 = load ptr, ptr %4, align 8, !tbaa !8
  %13 = load i64, ptr %5, align 8, !tbaa !30
  %14 = call ptr %11(ptr noundef %12, i64 noundef %13)
  store ptr %14, ptr %3, align 8
  br label %18

15:                                               ; preds = %2
  %16 = load i64, ptr %5, align 8, !tbaa !30
  %17 = call noalias ptr @malloc(i64 noundef %16) #17
  store ptr %17, ptr %3, align 8
  br label %18

18:                                               ; preds = %15, %8
  %19 = load ptr, ptr %3, align 8
  ret ptr %19
}

; Function Attrs: inlinehint nounwind uwtable
define internal i32 @pmix_bfrops_base_tma_argv_prepend_nosize(ptr noundef %0, ptr noundef %1, ptr noundef %2) #1 {
  %4 = alloca i32, align 4
  %5 = alloca ptr, align 8
  %6 = alloca ptr, align 8
  %7 = alloca ptr, align 8
  %8 = alloca i32, align 4
  %9 = alloca i32, align 4
  %10 = alloca i32, align 4
  store ptr %0, ptr %5, align 8, !tbaa !20
  store ptr %1, ptr %6, align 8, !tbaa !3
  store ptr %2, ptr %7, align 8, !tbaa !8
  call void @llvm.lifetime.start.p0(i64 4, ptr %8) #15
  call void @llvm.lifetime.start.p0(i64 4, ptr %9) #15
  %11 = load ptr, ptr %5, align 8, !tbaa !20
  %12 = load ptr, ptr %11, align 8, !tbaa !16
  %13 = icmp eq ptr null, %12
  br i1 %13, label %14, label %32

14:                                               ; preds = %3
  %15 = load ptr, ptr %7, align 8, !tbaa !8
  %16 = call ptr @pmix_tma_malloc(ptr noundef %15, i64 noundef 16)
  %17 = load ptr, ptr %5, align 8, !tbaa !20
  store ptr %16, ptr %17, align 8, !tbaa !16
  %18 = load ptr, ptr %5, align 8, !tbaa !20
  %19 = load ptr, ptr %18, align 8, !tbaa !16
  %20 = icmp eq ptr null, %19
  br i1 %20, label %21, label %22

21:                                               ; preds = %14
  store i32 -29, ptr %4, align 4
  store i32 1, ptr %10, align 4
  br label %85

22:                                               ; preds = %14
  %23 = load ptr, ptr %7, align 8, !tbaa !8
  %24 = load ptr, ptr %6, align 8, !tbaa !3
  %25 = call ptr @pmix_tma_strdup(ptr noundef %23, ptr noundef %24)
  %26 = load ptr, ptr %5, align 8, !tbaa !20
  %27 = load ptr, ptr %26, align 8, !tbaa !16
  %28 = getelementptr inbounds ptr, ptr %27, i64 0
  store ptr %25, ptr %28, align 8, !tbaa !3
  %29 = load ptr, ptr %5, align 8, !tbaa !20
  %30 = load ptr, ptr %29, align 8, !tbaa !16
  %31 = getelementptr inbounds ptr, ptr %30, i64 1
  store ptr null, ptr %31, align 8, !tbaa !3
  br label %84

32:                                               ; preds = %3
  %33 = load ptr, ptr %5, align 8, !tbaa !20
  %34 = load ptr, ptr %33, align 8, !tbaa !16
  %35 = load ptr, ptr %7, align 8, !tbaa !8
  %36 = call i32 @pmix_bfrops_base_tma_argv_count(ptr noundef %34, ptr noundef %35)
  store i32 %36, ptr %8, align 4, !tbaa !12
  %37 = load ptr, ptr %7, align 8, !tbaa !8
  %38 = load ptr, ptr %5, align 8, !tbaa !20
  %39 = load ptr, ptr %38, align 8, !tbaa !16
  %40 = load i32, ptr %8, align 4, !tbaa !12
  %41 = add nsw i32 %40, 2
  %42 = sext i32 %41 to i64
  %43 = mul i64 %42, 8
  %44 = call ptr @pmix_tma_realloc(ptr noundef %37, ptr noundef %39, i64 noundef %43)
  %45 = load ptr, ptr %5, align 8, !tbaa !20
  store ptr %44, ptr %45, align 8, !tbaa !16
  %46 = load ptr, ptr %5, align 8, !tbaa !20
  %47 = load ptr, ptr %46, align 8, !tbaa !16
  %48 = icmp eq ptr null, %47
  br i1 %48, label %49, label %50

49:                                               ; preds = %32
  store i32 -29, ptr %4, align 4
  store i32 1, ptr %10, align 4
  br label %85

50:                                               ; preds = %32
  %51 = load ptr, ptr %5, align 8, !tbaa !20
  %52 = load ptr, ptr %51, align 8, !tbaa !16
  %53 = load i32, ptr %8, align 4, !tbaa !12
  %54 = add nsw i32 %53, 1
  %55 = sext i32 %54 to i64
  %56 = getelementptr inbounds ptr, ptr %52, i64 %55
  store ptr null, ptr %56, align 8, !tbaa !3
  %57 = load i32, ptr %8, align 4, !tbaa !12
  store i32 %57, ptr %9, align 4, !tbaa !12
  br label %58

58:                                               ; preds = %74, %50
  %59 = load i32, ptr %9, align 4, !tbaa !12
  %60 = icmp slt i32 0, %59
  br i1 %60, label %61, label %77

61:                                               ; preds = %58
  %62 = load ptr, ptr %5, align 8, !tbaa !20
  %63 = load ptr, ptr %62, align 8, !tbaa !16
  %64 = load i32, ptr %9, align 4, !tbaa !12
  %65 = sub nsw i32 %64, 1
  %66 = sext i32 %65 to i64
  %67 = getelementptr inbounds ptr, ptr %63, i64 %66
  %68 = load ptr, ptr %67, align 8, !tbaa !3
  %69 = load ptr, ptr %5, align 8, !tbaa !20
  %70 = load ptr, ptr %69, align 8, !tbaa !16
  %71 = load i32, ptr %9, align 4, !tbaa !12
  %72 = sext i32 %71 to i64
  %73 = getelementptr inbounds ptr, ptr %70, i64 %72
  store ptr %68, ptr %73, align 8, !tbaa !3
  br label %74

74:                                               ; preds = %61
  %75 = load i32, ptr %9, align 4, !tbaa !12
  %76 = add nsw i32 %75, -1
  store i32 %76, ptr %9, align 4, !tbaa !12
  br label %58, !llvm.loop !22

77:                                               ; preds = %58
  %78 = load ptr, ptr %7, align 8, !tbaa !8
  %79 = load ptr, ptr %6, align 8, !tbaa !3
  %80 = call ptr @pmix_tma_strdup(ptr noundef %78, ptr noundef %79)
  %81 = load ptr, ptr %5, align 8, !tbaa !20
  %82 = load ptr, ptr %81, align 8, !tbaa !16
  %83 = getelementptr inbounds ptr, ptr %82, i64 0
  store ptr %80, ptr %83, align 8, !tbaa !3
  br label %84

84:                                               ; preds = %77, %22
  store i32 0, ptr %4, align 4
  store i32 1, ptr %10, align 4
  br label %85

85:                                               ; preds = %84, %49, %21
  call void @llvm.lifetime.end.p0(i64 4, ptr %9) #15
  call void @llvm.lifetime.end.p0(i64 4, ptr %8) #15
  %86 = load i32, ptr %4, align 4
  ret i32 %86
}

; Function Attrs: nounwind uwtable
define i32 @PMIx_Argv_prepend_nosize(ptr noundef %0, ptr noundef %1) #0 {
  %3 = alloca ptr, align 8
  %4 = alloca ptr, align 8
  store ptr %0, ptr %3, align 8, !tbaa !20
  store ptr %1, ptr %4, align 8, !tbaa !3
  %5 = load ptr, ptr %3, align 8, !tbaa !20
  %6 = load ptr, ptr %4, align 8, !tbaa !3
  %7 = call i32 @pmix_bfrops_base_tma_argv_prepend_nosize(ptr noundef %5, ptr noundef %6, ptr noundef null)
  ret i32 %7
}