; Function Attrs: nounwind uwtable
define range(i32 -29, 1) i32 @PMIx_Argv_prepend_nosize(ptr noundef captures(none) %0, ptr noundef readonly captures(none) %1) local_unnamed_addr #6 {
  %3 = load ptr, ptr %0, align 8, !tbaa !16
  %4 = icmp eq ptr %3, null
  br i1 %4, label %5, label %.preheader.i.i

5:                                                ; preds = %2
  %6 = tail call noalias noundef dereferenceable_or_null(16) ptr @malloc(i64 noundef 16) #45
  store ptr %6, ptr %0, align 8, !tbaa !16
  %7 = icmp eq ptr %6, null
  br i1 %7, label %pmix_bfrops_base_tma_argv_prepend_nosize.exit, label %8

8:                                                ; preds = %5
  %9 = tail call noalias ptr @strdup(ptr noundef readonly %1) #44
  store ptr %9, ptr %6, align 8, !tbaa !12
  %10 = getelementptr inbounds nuw i8, ptr %6, i64 8
  store ptr null, ptr %10, align 8, !tbaa !12
  br label %pmix_bfrops_base_tma_argv_prepend_nosize.exit

.preheader.i.i:                                   ; preds = %2
  %11 = load ptr, ptr %3, align 8, !tbaa !12
  %.not1.i.i = icmp eq ptr %11, null
  br i1 %.not1.i.i, label %pmix_bfrops_base_tma_argv_count.exit.i, label %.lr.ph.i.i

.lr.ph.i.i:                                       ; preds = %.preheader.i.i, %.lr.ph.i.i
  %.03.i.i = phi i32 [ %12, %.lr.ph.i.i ], [ 0, %.preheader.i.i ]
  %.062.i.i = phi ptr [ %13, %.lr.ph.i.i ], [ %3, %.preheader.i.i ]
  %12 = add nuw nsw i32 %.03.i.i, 1
  %13 = getelementptr inbounds nuw i8, ptr %.062.i.i, i64 8
  %14 = load ptr, ptr %13, align 8, !tbaa !12
  %.not.i.i = icmp eq ptr %14, null
  br i1 %.not.i.i, label %pmix_bfrops_base_tma_argv_count.exit.i, label %.lr.ph.i.i, !llvm.loop !15

pmix_bfrops_base_tma_argv_count.exit.i:           ; preds = %.lr.ph.i.i, %.preheader.i.i
  %.07.i.i = phi i32 [ 0, %.preheader.i.i ], [ %12, %.lr.ph.i.i ]
  %15 = add nsw i32 %.07.i.i, 2
  %16 = sext i32 %15 to i64
  %17 = shl nsw i64 %16, 3
  %18 = tail call noalias noundef ptr @realloc(ptr noundef nonnull %3, i64 noundef %17) #43
  store ptr %18, ptr %0, align 8, !tbaa !16
  %19 = icmp eq ptr %18, null
  br i1 %19, label %pmix_bfrops_base_tma_argv_prepend_nosize.exit, label %20

20:                                               ; preds = %pmix_bfrops_base_tma_argv_count.exit.i
  %21 = sext i32 %.07.i.i to i64
  %22 = getelementptr ptr, ptr %18, i64 %21
  %23 = getelementptr i8, ptr %22, i64 8
  store ptr null, ptr %23, align 8, !tbaa !12
  %24 = icmp sgt i32 %.07.i.i, 0
  br i1 %24, label %.lr.ph.preheader.i, label %._crit_edge.i

.lr.ph.preheader.i:                               ; preds = %20
  %25 = zext nneg i32 %.07.i.i to i64
  %scevgep = getelementptr i8, ptr %18, i64 8
  %26 = shl nuw nsw i64 %25, 3
  tail call void @llvm.memmove.p0.p0.i64(ptr align 8 %scevgep, ptr nonnull align 8 %18, i64 %26, i1 false), !tbaa !12
  br label %._crit_edge.i

._crit_edge.i:                                    ; preds = %.lr.ph.preheader.i, %20
  %27 = tail call noalias ptr @strdup(ptr noundef readonly %1) #44
  store ptr %27, ptr %18, align 8, !tbaa !12
  br label %pmix_bfrops_base_tma_argv_prepend_nosize.exit

pmix_bfrops_base_tma_argv_prepend_nosize.exit:    ; preds = %5, %8, %pmix_bfrops_base_tma_argv_count.exit.i, %._crit_edge.i
  %.027.i = phi i32 [ -29, %5 ], [ -29, %pmix_bfrops_base_tma_argv_count.exit.i ], [ 0, %._crit_edge.i ], [ 0, %8 ]
  ret i32 %.027.i
}